; Function Attrs: mustprogress nounwind uwtable
define internal fastcc void @_ZZN7openvdb5v11_02io12_GLOBAL__N_110doReadGridINS0_4math4BBoxINS4_4Vec3IdEEEEEEvSt10shared_ptrINS0_8GridBaseEERKNS1_14GridDescriptorERSiRKT_EN6OnExitD2Ev(ptr nocapture noundef nonnull readonly align 8 dereferenceable(16) %this) unnamed_addr #8 align 2 personality ptr @__gxx_personality_v0 {
entry:
  %ptr = getelementptr inbounds i8, ptr %this, i64 8
  %0 = load ptr, ptr %ptr, align 8
  %1 = load ptr, ptr %this, align 8
  %2 = load atomic i8, ptr @_ZGVZN7openvdb5v11_02io12_GLOBAL__N_113GetSteamStateEvE12sStreamState acquire, align 8
  %guard.uninitialized.i = icmp eq i8 %2, 0
  br i1 %guard.uninitialized.i, label %init.check.i, label %invoke.cont, !prof !8

init.check.i:                                     ; preds = %entry
  %3 = tail call i32 @__cxa_guard_acquire(ptr nonnull @_ZGVZN7openvdb5v11_02io12_GLOBAL__N_113GetSteamStateEvE12sStreamState) #25
  %tobool.not.i = icmp eq i32 %3, 0
  br i1 %tobool.not.i, label %invoke.cont, label %init.i

init.i:                                           ; preds = %init.check.i
  invoke fastcc void @_ZN7openvdb5v11_02io12_GLOBAL__N_111StreamStateC2Ev()
          to label %invoke.cont.i unwind label %lpad.i

invoke.cont.i:                                    ; preds = %init.i
  %4 = tail call i32 @__cxa_atexit(ptr nonnull @_ZN7openvdb5v11_02io12_GLOBAL__N_111StreamStateD2Ev, ptr nonnull @_ZZN7openvdb5v11_02io12_GLOBAL__N_113GetSteamStateEvE12sStreamState, ptr nonnull @__dso_handle) #25
  tail call void @__cxa_guard_release(ptr nonnull @_ZGVZN7openvdb5v11_02io12_GLOBAL__N_113GetSteamStateEvE12sStreamState) #25
  br label %invoke.cont

lpad.i:                                           ; preds = %init.i
  %5 = landingpad { ptr, i32 }
          catch ptr null
  tail call void @__cxa_guard_abort(ptr nonnull @_ZGVZN7openvdb5v11_02io12_GLOBAL__N_113GetSteamStateEvE12sStreamState) #25
  br label %terminate.lpad.body

invoke.cont:                                      ; preds = %invoke.cont.i, %init.check.i, %entry
  %6 = load i32, ptr getelementptr inbounds (%"struct.openvdb::v11_0::io::(anonymous namespace)::StreamState", ptr @_ZZN7openvdb5v11_02io12_GLOBAL__N_113GetSteamStateEvE12sStreamState, i64 0, i32 10), align 4
  %_M_word_size.i = getelementptr inbounds i8, ptr %1, i64 192
  %7 = load i32, ptr %_M_word_size.i, align 8
  %cmp.i = icmp ugt i32 %7, %6
  br i1 %cmp.i, label %cond.true.i, label %cond.false.i

cond.true.i:                                      ; preds = %invoke.cont
  %_M_word.i = getelementptr inbounds i8, ptr %1, i64 200
  %8 = load ptr, ptr %_M_word.i, align 8
  %idxprom.i = sext i32 %6 to i64
  %arrayidx.i = getelementptr inbounds %"struct.std::ios_base::_Words", ptr %8, i64 %idxprom.i
  br label %invoke.cont2

cond.false.i:                                     ; preds = %invoke.cont
  %call.i1 = invoke noundef nonnull align 8 dereferenceable(16) ptr @_ZNSt8ios_base13_M_grow_wordsEib(ptr noundef nonnull align 8 dereferenceable(216) %1, i32 noundef %6, i1 noundef zeroext false)
          to label %invoke.cont2 unwind label %terminate.lpad

invoke.cont2:                                     ; preds = %cond.true.i, %cond.false.i
  %cond-lvalue.i = phi ptr [ %arrayidx.i, %cond.true.i ], [ %call.i1, %cond.false.i ]
  store ptr %0, ptr %cond-lvalue.i, align 8
  ret void

terminate.lpad:                                   ; preds = %cond.false.i
  %9 = landingpad { ptr, i32 }
          catch ptr null
  br label %terminate.lpad.body

terminate.lpad.body:                              ; preds = %lpad.i, %terminate.lpad
  %eh.lpad-body = phi { ptr, i32 } [ %9, %terminate.lpad ], [ %5, %lpad.i ]
  %10 = extractvalue { ptr, i32 } %eh.lpad-body, 0
  tail call void @__clang_call_terminate(ptr %10) #37
  unreachable
}